target datalayout = "e-m:e-p270:32:32-p271:32:32-p272:64:64-i64:64-i128:128-f80:128-n8:16:32:64-S128"
target triple = "x86_64-pc-linux-gnu"

%struct.CopyStruct_ = type { [1048575 x %struct.CopyFixup], ptr, i8, i8, i8 }
%struct.CopyFixup = type { ptr, ptr }
%struct.VHeader_ = type { i32, i32, [0 x i8] }

@copy_struct = internal global %struct.CopyStruct_ zeroinitializer, align 8

; Function Attrs: nounwind uwtable
define internal ptr @vec_new_(i64 noundef %0, i64 noundef %1) #0 {
  %3 = alloca i64, align 8
  %4 = alloca i64, align 8
  %5 = alloca ptr, align 8
  store i64 %0, ptr %3, align 8
  store i64 %1, ptr %4, align 8
  %6 = load i64, ptr %3, align 8
  %7 = load i64, ptr %4, align 8
  %8 = mul i64 %6, %7
  %9 = add i64 %8, 8
  %10 = call ptr @calloc_arena(i64 noundef %9)
  store ptr %10, ptr %5, align 8
  %11 = load i64, ptr %4, align 8
  %12 = trunc i64 %11 to i32
  %13 = load ptr, ptr %5, align 8
  %14 = getelementptr inbounds %struct.VHeader_, ptr %13, i32 0, i32 1
  store i32 %12, ptr %14, align 4
  %15 = load ptr, ptr %5, align 8
  ret ptr %15
}

; Function Attrs: nounwind uwtable
define internal ptr @expand_(ptr noundef %0, i64 noundef %1) #0 {
  %3 = alloca ptr, align 8
  %4 = alloca i64, align 8
  %5 = alloca ptr, align 8
  %6 = alloca ptr, align 8
  %7 = alloca i64, align 8
  store ptr %0, ptr %3, align 8
  store i64 %1, ptr %4, align 8
  %8 = load ptr, ptr %3, align 8
  %9 = icmp ne ptr %8, null
  br i1 %9, label %13, label %10

10:                                               ; preds = %2
  %11 = load i64, ptr %4, align 8
  %12 = call ptr @vec_new_(i64 noundef %11, i64 noundef 8)
  store ptr %12, ptr %5, align 8
  br label %16

13:                                               ; preds = %2
  %14 = load ptr, ptr %3, align 8
  %15 = getelementptr inbounds %struct.VHeader_, ptr %14, i64 -1
  store ptr %15, ptr %5, align 8
  br label %16

16:                                               ; preds = %13, %10
  %17 = load ptr, ptr %5, align 8
  %18 = getelementptr inbounds %struct.VHeader_, ptr %17, i32 0, i32 0
  %19 = load i32, ptr %18, align 4
  %20 = load ptr, ptr %5, align 8
  %21 = getelementptr inbounds %struct.VHeader_, ptr %20, i32 0, i32 1
  %22 = load i32, ptr %21, align 4
  %23 = icmp eq i32 %19, %22
  br i1 %23, label %24, label %49

24:                                               ; preds = %16
  %25 = load i64, ptr %4, align 8
  %26 = load ptr, ptr %5, align 8
  %27 = getelementptr inbounds %struct.VHeader_, ptr %26, i32 0, i32 1
  %28 = load i32, ptr %27, align 4
  %29 = shl i32 %28, 1
  %30 = zext i32 %29 to i64
  %31 = call ptr @vec_new_(i64 noundef %25, i64 noundef %30)
  store ptr %31, ptr %6, align 8
  %32 = load i64, ptr %4, align 8
  %33 = load ptr, ptr %5, align 8
  %34 = getelementptr inbounds %struct.VHeader_, ptr %33, i32 0, i32 1
  %35 = load i32, ptr %34, align 4
  %36 = zext i32 %35 to i64
  %37 = mul i64 %32, %36
  %38 = add i64 %37, 8
  store i64 %38, ptr %7, align 8
  %39 = load ptr, ptr %6, align 8
  %40 = load ptr, ptr %5, align 8
  %41 = load i64, ptr %7, align 8
  call void @llvm.memcpy.p0.p0.i64(ptr align 4 %39, ptr align 4 %40, i64 %41, i1 false)
  %42 = load ptr, ptr %6, align 8
  store ptr %42, ptr %5, align 8
  %43 = load ptr, ptr %5, align 8
  %44 = getelementptr inbounds %struct.VHeader_, ptr %43, i32 0, i32 1
  %45 = load i32, ptr %44, align 4
  %46 = shl i32 %45, 1
  %47 = load ptr, ptr %6, align 8
  %48 = getelementptr inbounds %struct.VHeader_, ptr %47, i32 0, i32 1
  store i32 %46, ptr %48, align 4
  br label %49

49:                                               ; preds = %24, %16
  %50 = load ptr, ptr %5, align 8
  %51 = getelementptr inbounds %struct.VHeader_, ptr %50, i32 0, i32 0
  %52 = load i32, ptr %51, align 4
  %53 = add i32 %52, 1
  store i32 %53, ptr %51, align 4
  %54 = load ptr, ptr %5, align 8
  %55 = getelementptr inbounds %struct.VHeader_, ptr %54, i64 1
  ret ptr %55
}

; Function Attrs: nounwind uwtable
define internal ptr @copy_decl_list(ptr noundef %0, ptr noundef %1) #0 {
  %3 = alloca i32, align 4
  %4 = alloca ptr, align 8
  %5 = alloca ptr, align 8
  %6 = alloca i32, align 4
  %7 = alloca ptr, align 8
  %8 = alloca ptr, align 8
  %9 = alloca ptr, align 8
  %10 = alloca ptr, align 8
  %11 = alloca ptr, align 8
  %12 = alloca i32, align 4
  %13 = alloca i32, align 4
  %14 = alloca ptr, align 8
  store ptr %0, ptr %9, align 8
  store ptr %1, ptr %10, align 8
  store ptr null, ptr %11, align 8
  store i32 0, ptr %12, align 4
  %15 = load ptr, ptr %10, align 8
  store ptr %15, ptr %4, align 8
  %16 = load ptr, ptr %4, align 8
  %17 = icmp ne ptr %16, null
  br i1 %17, label %19, label %18

18:                                               ; preds = %2
  store i32 0, ptr %3, align 4
  br label %24

19:                                               ; preds = %2
  %20 = load ptr, ptr %4, align 8
  store ptr %20, ptr %5, align 8
  %21 = load ptr, ptr %5, align 8
  %22 = getelementptr inbounds %struct.VHeader_, ptr %21, i64 -1
  %23 = load i32, ptr %22, align 4
  store i32 %23, ptr %3, align 4
  br label %24

24:                                               ; preds = %19, %18
  %25 = load i32, ptr %3, align 4
  store i32 %25, ptr %13, align 4
  br label %26

26:                                               ; preds = %58, %24
  %27 = load i32, ptr %12, align 4
  %28 = load i32, ptr %13, align 4
  %29 = icmp ult i32 %27, %28
  br i1 %29, label %30, label %61

30:                                               ; preds = %26
  br label %31

31:                                               ; preds = %30
  %32 = load ptr, ptr %11, align 8
  %33 = call ptr @expand_(ptr noundef %32, i64 noundef 8)
  store ptr %33, ptr %14, align 8
  %34 = load ptr, ptr %14, align 8
  store ptr %34, ptr %11, align 8
  %35 = load ptr, ptr %9, align 8
  %36 = load ptr, ptr %10, align 8
  %37 = load i32, ptr %12, align 4
  %38 = zext i32 %37 to i64
  %39 = getelementptr inbounds ptr, ptr %36, i64 %38
  %40 = load ptr, ptr %39, align 8
  %41 = call ptr @copy_decl(ptr noundef %35, ptr noundef %40)
  %42 = load ptr, ptr %11, align 8
  %43 = load ptr, ptr %11, align 8
  store ptr %43, ptr %7, align 8
  %44 = load ptr, ptr %7, align 8
  %45 = icmp ne ptr %44, null
  br i1 %45, label %47, label %46

46:                                               ; preds = %31
  store i32 0, ptr %6, align 4
  br label %52

47:                                               ; preds = %31
  %48 = load ptr, ptr %7, align 8
  store ptr %48, ptr %8, align 8
  %49 = load ptr, ptr %8, align 8
  %50 = getelementptr inbounds %struct.VHeader_, ptr %49, i64 -1
  %51 = load i32, ptr %50, align 4
  store i32 %51, ptr %6, align 4
  br label %52

52:                                               ; preds = %47, %46
  %53 = load i32, ptr %6, align 4
  %54 = sub i32 %53, 1
  %55 = zext i32 %54 to i64
  %56 = getelementptr inbounds ptr, ptr %42, i64 %55
  store ptr %41, ptr %56, align 8
  br label %57

57:                                               ; preds = %52
  br label %58

58:                                               ; preds = %57
  %59 = load i32, ptr %12, align 4
  %60 = add i32 %59, 1
  store i32 %60, ptr %12, align 4
  br label %26, !llvm.loop !9

61:                                               ; preds = %26
  %62 = load ptr, ptr %11, align 8
  ret ptr %62
}

; Function Attrs: nounwind uwtable
define dso_local void @copy_end() #0 {
  store i8 0, ptr getelementptr inbounds (%struct.CopyStruct_, ptr @copy_struct, i32 0, i32 3), align 1
  ret void
}

; Function Attrs: nounwind uwtable
define dso_local ptr @copy_decl_list_macro(ptr noundef %0) #0 {
  %2 = alloca ptr, align 8
  store ptr %0, ptr %2, align 8
  %3 = load ptr, ptr %2, align 8
  %4 = call ptr @copy_decl_list(ptr noundef @copy_struct, ptr noundef %3)
  ret ptr %4
}

; Function Attrs: nounwind uwtable
define dso_local void @copy_begin() #0 {
  store ptr @copy_struct, ptr getelementptr inbounds (%struct.CopyStruct_, ptr @copy_struct, i32 0, i32 1), align 8
  store i8 1, ptr getelementptr inbounds (%struct.CopyStruct_, ptr @copy_struct, i32 0, i32 3), align 1
  store i8 0, ptr getelementptr inbounds (%struct.CopyStruct_, ptr @copy_struct, i32 0, i32 2), align 8
  ret void
}

; Function Attrs: nounwind uwtable
define dso_local ptr @copy_decl_list_single_for_unit(ptr noundef %0) #0 {
  %2 = alloca ptr, align 8
  %3 = alloca i8, align 1
  %4 = alloca ptr, align 8
  store ptr %0, ptr %2, align 8
  %5 = load i8, ptr getelementptr inbounds (%struct.CopyStruct_, ptr @copy_struct, i32 0, i32 4), align 2
  %6 = trunc i8 %5 to i1
  %7 = zext i1 %6 to i8
  store i8 %7, ptr %3, align 1
  store i8 1, ptr getelementptr inbounds (%struct.CopyStruct_, ptr @copy_struct, i32 0, i32 4), align 2
  call void @copy_begin()
  %8 = load ptr, ptr %2, align 8
  %9 = call ptr @copy_decl_list_macro(ptr noundef %8)
  store ptr %9, ptr %4, align 8
  call void @copy_end()
  %10 = load i8, ptr %3, align 1
  %11 = trunc i8 %10 to i1
  %12 = zext i1 %11 to i8
  store i8 %12, ptr getelementptr inbounds (%struct.CopyStruct_, ptr @copy_struct, i32 0, i32 4), align 2
  %13 = load ptr, ptr %4, align 8
  ret ptr %13
}