; Function Attrs: nounwind uwtable
define dso_local ptr @copy_decl_list_single_for_unit(ptr noundef readonly %0) local_unnamed_addr #0 {
  %2 = load i8, ptr getelementptr inbounds (%struct.CopyStruct_, ptr @copy_struct, i64 0, i32 4), align 2
  store i8 1, ptr getelementptr inbounds (%struct.CopyStruct_, ptr @copy_struct, i64 0, i32 4), align 2
  store ptr @copy_struct, ptr getelementptr inbounds (%struct.CopyStruct_, ptr @copy_struct, i64 0, i32 1), align 8
  store i8 1, ptr getelementptr inbounds (%struct.CopyStruct_, ptr @copy_struct, i64 0, i32 3), align 1
  store i8 0, ptr getelementptr inbounds (%struct.CopyStruct_, ptr @copy_struct, i64 0, i32 2), align 8
  %.not.i.i = icmp eq ptr %0, null
  br i1 %.not.i.i, label %copy_decl_list_macro.exit, label %3

3:                                                ; preds = %1
  %4 = getelementptr inbounds i8, ptr %0, i64 -8
  %5 = load i32, ptr %4, align 4
  %.not27.i.i = icmp eq i32 %5, 0
  br i1 %.not27.i.i, label %copy_decl_list_macro.exit, label %.lr.ph.preheader.i.i

.lr.ph.preheader.i.i:                             ; preds = %3
  %wide.trip.count.i.i = zext i32 %5 to i64
  br label %.lr.ph.i.i

.lr.ph.i.i:                                       ; preds = %29, %.lr.ph.preheader.i.i
  %indvars.iv.i.i = phi i64 [ 0, %.lr.ph.preheader.i.i ], [ %indvars.iv.next.i.i, %29 ]
  %.02125.i.i = phi ptr [ null, %.lr.ph.preheader.i.i ], [ %32, %29 ]
  %.not.i.i.i = icmp eq ptr %.02125.i.i, null
  br i1 %.not.i.i.i, label %6, label %9

6:                                                ; preds = %.lr.ph.i.i
  %7 = tail call ptr @calloc_arena(i64 noundef 72) #5
  %8 = getelementptr inbounds i8, ptr %7, i64 4
  store i32 8, ptr %8, align 4
  br label %11

9:                                                ; preds = %.lr.ph.i.i
  %10 = getelementptr inbounds i8, ptr %.02125.i.i, i64 -8
  %.phi.trans.insert.i.i.i = getelementptr inbounds i8, ptr %.02125.i.i, i64 -4
  %.pre.i.i.i = load i32, ptr %.phi.trans.insert.i.i.i, align 4
  br label %11

11:                                               ; preds = %9, %6
  %12 = phi i32 [ %.pre.i.i.i, %9 ], [ 8, %6 ]
  %.0.i.i.i = phi ptr [ %10, %9 ], [ %7, %6 ]
  %13 = load i32, ptr %.0.i.i.i, align 4
  %14 = icmp eq i32 %13, %12
  br i1 %14, label %15, label %29

15:                                               ; preds = %11
  %16 = getelementptr inbounds i8, ptr %.0.i.i.i, i64 4
  %17 = shl i32 %12, 1
  %18 = zext i32 %17 to i64
  %19 = shl nuw nsw i64 %18, 3
  %20 = or disjoint i64 %19, 8
  %21 = tail call ptr @calloc_arena(i64 noundef %20) #5
  %22 = getelementptr inbounds i8, ptr %21, i64 4
  store i32 %17, ptr %22, align 4
  %23 = load i32, ptr %16, align 4
  %24 = zext i32 %23 to i64
  %25 = shl nuw nsw i64 %24, 3
  %26 = add nuw nsw i64 %25, 8
  tail call void @llvm.memcpy.p0.p0.i64(ptr noundef nonnull align 4 dereferenceable(1) %21, ptr noundef nonnull align 4 dereferenceable(1) %.0.i.i.i, i64 %26, i1 false)
  %27 = load i32, ptr %22, align 4
  %28 = shl i32 %27, 1
  store i32 %28, ptr %22, align 4
  %.pre18.i.i.i = load i32, ptr %21, align 4
  br label %29

29:                                               ; preds = %15, %11
  %30 = phi i32 [ %.pre18.i.i.i, %15 ], [ %13, %11 ]
  %.1.i.i.i = phi ptr [ %21, %15 ], [ %.0.i.i.i, %11 ]
  %31 = add i32 %30, 1
  store i32 %31, ptr %.1.i.i.i, align 4
  %32 = getelementptr inbounds i8, ptr %.1.i.i.i, i64 8
  %33 = getelementptr inbounds ptr, ptr %0, i64 %indvars.iv.i.i
  %34 = load ptr, ptr %33, align 8
  %35 = tail call fastcc ptr @copy_decl(ptr noundef nonnull @copy_struct, ptr noundef %34) #7
  %36 = load i32, ptr %.1.i.i.i, align 4
  %37 = add i32 %36, -1
  %38 = zext i32 %37 to i64
  %39 = getelementptr inbounds ptr, ptr %32, i64 %38
  store ptr %35, ptr %39, align 8
  %indvars.iv.next.i.i = add nuw nsw i64 %indvars.iv.i.i, 1
  %exitcond.not.i.i = icmp eq i64 %indvars.iv.next.i.i, %wide.trip.count.i.i
  br i1 %exitcond.not.i.i, label %copy_decl_list_macro.exit, label %.lr.ph.i.i, !llvm.loop !7

copy_decl_list_macro.exit:                        ; preds = %29, %1, %3
  %.021.lcssa.i.i = phi ptr [ null, %3 ], [ null, %1 ], [ %32, %29 ]
  %40 = and i8 %2, 1
  store i8 0, ptr getelementptr inbounds (%struct.CopyStruct_, ptr @copy_struct, i64 0, i32 3), align 1
  store i8 %40, ptr getelementptr inbounds (%struct.CopyStruct_, ptr @copy_struct, i64 0, i32 4), align 2
  ret ptr %.021.lcssa.i.i
}